target datalayout = "e-m:e-p270:32:32-p271:32:32-p272:64:64-i64:64-i128:128-f80:128-n8:16:32:64-S128"
target triple = "x86_64-pc-linux-gnu"

%"class.Assimp::BaseImporter" = type { ptr, double, double, %"class.std::__cxx11::basic_string", %"class.std::__exception_ptr::exception_ptr", ptr }
%"class.std::__cxx11::basic_string" = type { %"struct.std::__cxx11::basic_string<char>::_Alloc_hider", i64, %union.anon }
%"struct.std::__cxx11::basic_string<char>::_Alloc_hider" = type { ptr }
%union.anon = type { i64, [8 x i8] }
%"class.std::__exception_ptr::exception_ptr" = type { ptr }

@.str = private unnamed_addr constant [17 x i8] c"APP_SCALE_FACTOR\00", align 1
@.str.1 = private unnamed_addr constant [32 x i8] c"UpdateImporterScale scale set: \00", align 1

; Function Attrs: mustprogress uwtable
define void @_ZN6Assimp12BaseImporter19UpdateImporterScaleEPNS_8ImporterE(ptr noundef nonnull align 8 dereferenceable(72) %0, ptr noundef %1) #3 align 2 {
  %3 = alloca ptr, align 8
  %4 = alloca ptr, align 8
  %5 = alloca double, align 8
  store ptr %0, ptr %3, align 8
  store ptr %1, ptr %4, align 8
  %6 = load ptr, ptr %3, align 8
  call void @llvm.lifetime.start.p0(i64 8, ptr %5) #18
  %7 = getelementptr inbounds nuw %"class.Assimp::BaseImporter", ptr %6, i32 0, i32 1
  %8 = load double, ptr %7, align 8
  %9 = getelementptr inbounds nuw %"class.Assimp::BaseImporter", ptr %6, i32 0, i32 2
  %10 = load double, ptr %9, align 8
  %11 = fmul double %8, %10
  store double %11, ptr %5, align 8
  %12 = load ptr, ptr %4, align 8
  %13 = load double, ptr %5, align 8
  %14 = fptrunc double %13 to float
  %15 = call noundef zeroext i1 @_ZN6Assimp8Importer16SetPropertyFloatEPKcf(ptr noundef nonnull align 8 dereferenceable(8) %12, ptr noundef @.str, float noundef %14)
  %16 = call noundef ptr @_ZN6Assimp13DefaultLogger3getEv()
  call void @_ZN6Assimp6Logger5debugIJRA32_KcRdEEEvDpOT_(ptr noundef nonnull align 8 dereferenceable(12) %16, ptr noundef nonnull align 1 dereferenceable(32) @.str.1, ptr noundef nonnull align 8 dereferenceable(8) %5)
  call void @llvm.lifetime.end.p0(i64 8, ptr %5) #18
  ret void
}