; Function Attrs: mustprogress uwtable
define void @_ZN6Assimp12BaseImporter19UpdateImporterScaleEPNS_8ImporterE(ptr noundef nonnull readonly align 8 captures(none) dereferenceable(72) %0, ptr noundef nonnull %1) local_unnamed_addr #2 align 2 {
  %3 = alloca double, align 8
  call void @llvm.lifetime.start.p0(i64 8, ptr nonnull %3) #27
  %4 = getelementptr inbounds nuw i8, ptr %0, i64 8
  %5 = load double, ptr %4, align 8
  %6 = getelementptr inbounds nuw i8, ptr %0, i64 16
  %7 = load double, ptr %6, align 8
  %8 = fmul double %5, %7
  store double %8, ptr %3, align 8
  %9 = fptrunc double %8 to float
  %10 = tail call noundef zeroext i1 @_ZN6Assimp8Importer16SetPropertyFloatEPKcf(ptr noundef nonnull align 8 dereferenceable(8) %1, ptr noundef nonnull @.str, float noundef %9)
  %11 = tail call noundef ptr @_ZN6Assimp13DefaultLogger3getEv()
  call void @_ZN6Assimp6Logger5debugIJRA32_KcRdEEEvDpOT_(ptr noundef nonnull align 8 dereferenceable(12) %11, ptr noundef nonnull align 1 dereferenceable(32) @.str.1, ptr noundef nonnull align 8 dereferenceable(8) %3)
  call void @llvm.lifetime.end.p0(i64 8, ptr nonnull %3) #27
  ret void
}